Certificate:
    Data:
        Version: 3 (0x2)
        Serial Number: 61 (0x3d)
    Signature Algorithm: sha1WithRSAEncryption
        Issuer: C=US, ST=Pennsylvania, L=Pittsburgh, O=15-441 Carnegie Mellon University, OU=Signing CA, CN=15-441 CMU CA/emailAddress=staff-441@cs.cmu.edu
        Validity
            Not Before: Oct  2 20:23:49 2013 GMT
            Not After : Oct  2 20:23:49 2014 GMT
        Subject: C=US, ST=Pennsylvania, L=Pittsburgh, O=hongchad Corp., OU=hongchad Organizational Unit, CN=hongchad.no-ip.biz/emailAddress=hongchad@andrew.cmu.edu
        Subject Public Key Info:
            Public Key Algorithm: rsaEncryption
                Public-Key: (4096 bit)
                Modulus:
                    00:e0:ad:09:4b:e2:32:15:fe:95:e6:6b:77:70:94:
                    92:05:26:ba:72:ba:6d:76:c0:ac:93:e7:ac:8b:f6:
                    85:14:1f:46:55:c1:91:5e:a8:6f:36:a6:f9:f6:1e:
                    f0:fe:04:14:91:12:b2:50:dd:65:79:dc:a2:7e:65:
                    8c:8c:aa:26:e8:2d:b2:49:e8:78:6d:e7:44:c5:d9:
                    2e:ec:cb:0d:d0:05:d2:ac:84:e0:13:37:da:46:b6:
                    9d:d6:6b:42:65:8e:a9:1f:88:f1:92:0e:2d:2c:82:
                    40:bb:4d:01:31:40:25:e1:51:57:4e:19:8c:14:f0:
                    c9:7d:cd:20:5f:db:a0:3f:4c:15:8f:96:86:d4:7f:
                    8a:7f:a9:e6:55:bb:8c:20:75:80:fd:f2:71:db:9f:
                    72:25:1b:fc:38:2b:11:ac:73:5d:5b:13:1d:30:02:
                    64:d8:35:e4:3a:9e:ed:6b:6d:f1:54:3b:b8:24:b5:
                    86:55:9f:32:03:97:96:45:d0:c9:90:ce:c3:88:29:
                    0e:32:3e:f9:55:fb:0c:ed:be:37:c0:51:d3:e9:60:
                    a6:63:5b:b7:6f:45:20:44:8f:3e:bb:bd:b0:ff:4b:
                    00:47:b6:c0:80:4e:68:a0:2a:c4:10:6f:70:ca:1e:
                    24:e4:dd:12:34:e9:62:b4:7d:38:cf:15:a7:8a:7f:
                    f4:23:3c:28:f4:77:a6:33:0f:41:75:f5:c3:de:a2:
                    e2:a6:7e:24:49:6b:27:94:d7:46:9a:86:16:9b:69:
                    05:b0:b1:6d:5b:f6:d7:6e:fd:8b:cf:0d:7b:c5:e4:
                    ed:c1:d9:a1:45:e2:6e:30:a8:25:28:d8:a8:4c:d2:
                    02:e8:c6:72:03:17:29:86:44:92:5e:df:52:e7:af:
                    ef:60:6d:7a:de:ac:70:a0:04:36:96:56:f5:1c:6d:
                    b3:78:c1:37:d1:d9:a0:60:77:ca:38:11:03:b8:07:
                    f2:fc:e0:bd:a9:41:cc:c5:06:a1:9b:8c:9c:9f:13:
                    0a:9d:6e:e5:c0:83:6c:98:5e:d0:c8:73:13:0d:d8:
                    f3:01:f3:a8:6a:e7:19:04:c7:55:de:24:e5:e9:5e:
                    0c:f4:8f:51:b5:e2:fc:dc:0a:7d:19:40:84:71:1e:
                    ce:9c:91:da:1c:70:b8:e5:bc:2d:fe:1f:1f:5e:0b:
                    96:af:52:f3:43:69:81:19:fb:ce:a9:1d:f4:df:f0:
                    96:7e:c7:f8:d7:15:b4:65:04:0a:ef:9b:49:b1:ec:
                    05:3f:36:9c:a2:42:b0:56:8a:7d:da:e6:83:4d:bc:
                    ad:19:c4:0e:2a:12:77:6c:68:21:1b:ba:0e:14:be:
                    43:20:84:fa:7f:ae:3d:30:eb:90:a9:89:94:5c:06:
                    8a:f4:03
                Exponent: 65537 (0x10001)
        X509v3 extensions:
            X509v3 Basic Constraints: 
                CA:FALSE
            Netscape Comment: 
                15-441 CMU CA OpenSSL Generated Certificate
            X509v3 Subject Key Identifier: 
                1C:79:B6:DB:8A:CF:80:56:C4:1C:07:A2:A9:A5:77:80:B1:CA:A7:CB
            X509v3 Authority Key Identifier: 
                keyid:0D:A0:38:35:12:43:ED:C1:1C:37:33:2C:A8:C7:F7:46:5D:FD:6D:5C

    Signature Algorithm: sha1WithRSAEncryption
         1d:b7:12:a9:b7:29:de:a6:c5:18:ef:fd:7b:69:d3:1f:1a:8c:
         6e:90:f9:38:ea:11:c7:2c:ea:a6:95:76:c0:f2:60:0e:cd:a5:
         89:26:f2:a8:95:58:5f:0d:f2:05:48:1d:bc:10:8b:65:2f:5f:
         63:c5:3e:f7:88:f1:3a:21:5e:9f:3e:76:c0:8f:28:d8:f6:d6:
         79:2e:3d:6f:45:62:16:c7:39:00:f2:92:85:75:01:00:55:9e:
         24:9d:ed:5d:19:38:34:0c:08:ed:71:04:1f:a4:82:59:64:dd:
         ca:ed:95:7e:9b:e8:5a:0b:20:bc:02:11:31:1f:8d:ed:b5:da:
         15:45:59:30:8f:94:da:df:e0:bf:88:ef:e5:24:d5:15:a6:73:
         04:a3:59:b3:a0:17:ba:30:37:71:7f:bd:46:6f:81:77:0c:46:
         66:e7:ab:65:74:28:10:ef:07:c4:d9:f3:1d:2b:cd:13:57:b7:
         40:85:b4:67:13:7d:7d:18:e9:67:fb:1d:54:46:b9:a0:f2:3c:
         8a:61:65:e1:98:24:f8:a9:a7:af:6e:d1:ee:f0:ee:4e:ae:19:
         f3:d3:34:ad:03:1e:6a:a1:ce:a1:79:d6:8f:c3:21:e5:be:35:
         43:ac:3a:2e:5f:68:df:50:19:a9:a1:65:5c:ad:8b:69:ea:9b:
         5d:eb:20:5a:ac:7f:4a:2e:62:5e:a9:29:e1:ce:5b:a7:7c:22:
         42:a5:b3:7c:2e:bb:a4:8c:72:9a:3a:55:57:46:65:76:5b:43:
         93:ce:05:fd:78:6e:1b:99:89:a7:51:79:36:65:49:df:90:26:
         65:f7:1e:de:5b:4a:46:97:a6:cb:06:03:c3:54:57:fd:5a:a4:
         b9:e6:17:02:9f:a7:d5:84:b3:3d:fb:c5:96:d0:23:af:de:9b:
         4d:d0:ff:8b:18:ff:0c:17:54:1d:e0:69:0e:a1:83:b9:2a:e4:
         67:37:ee:0e:3d:f2:4f:46:2f:c7:d6:c4:33:40:bb:c6:2b:0e:
         93:a8:70:8a:19:0c:f7:c8:3b:49:68:28:ab:57:05:f4:3c:c6:
         7f:34:df:c5:48:6c:db:f7:78:b4:32:0d:67:da:e8:a4:f4:11:
         91:98:39:32:4f:ef:22:ee:ba:75:91:19:11:75:86:4c:d5:4d:
         7b:71:28:00:14:cb:c6:bb:c0:e9:19:47:48:6d:c1:05:9f:ff:
         8d:92:b1:4c:01:bc:5f:ab:5e:91:7f:a3:63:47:1a:f3:b7:82:
         0d:80:fa:22:2a:27:5b:68:74:12:2e:05:2f:e2:47:14:e0:2f:
         97:3d:44:07:60:f5:e2:04:e0:22:ba:bc:d7:ba:35:a2:f5:88:
         b9:f7:fc:dc:b0:20:3c:c2
-----BEGIN CERTIFICATE-----
MIIGfTCCBGWgAwIBAgIBPTANBgkqhkiG9w0BAQUFADCBtzELMAkGA1UEBhMCVVMx
FTATBgNVBAgTDFBlbm5zeWx2YW5pYTETMBEGA1UEBxMKUGl0dHNidXJnaDEqMCgG
A1UEChMhMTUtNDQxIENhcm5lZ2llIE1lbGxvbiBVbml2ZXJzaXR5MRMwEQYDVQQL
EwpTaWduaW5nIENBMRYwFAYDVQQDEw0xNS00NDEgQ01VIENBMSMwIQYJKoZIhvcN
AQkBFhRzdGFmZi00NDFAY3MuY211LmVkdTAeFw0xMzEwMDIyMDIzNDlaFw0xNDEw
MDIyMDIzNDlaMIG+MQswCQYDVQQGEwJVUzEVMBMGA1UECBMMUGVubnN5bHZhbmlh
MRMwEQYDVQQHEwpQaXR0c2J1cmdoMRcwFQYDVQQKEw5ob25nY2hhZCBDb3JwLjEl
MCMGA1UECxMcaG9uZ2NoYWQgT3JnYW5pemF0aW9uYWwgVW5pdDEbMBkGA1UEAxMS
aG9uZ2NoYWQubm8taXAuYml6MSYwJAYJKoZIhvcNAQkBFhdob25nY2hhZEBhbmRy
ZXcuY211LmVkdTCCAiIwDQYJKoZIhvcNAQEBBQADggIPADCCAgoCggIBAOCtCUvi
MhX+leZrd3CUkgUmunK6bXbArJPnrIv2hRQfRlXBkV6obzam+fYe8P4EFJESslDd
ZXncon5ljIyqJugtsknoeG3nRMXZLuzLDdAF0qyE4BM32ka2ndZrQmWOqR+I8ZIO
LSyCQLtNATFAJeFRV04ZjBTwyX3NIF/boD9MFY+WhtR/in+p5lW7jCB1gP3ycduf
ciUb/DgrEaxzXVsTHTACZNg15Dqe7Wtt8VQ7uCS1hlWfMgOXlkXQyZDOw4gpDjI+
+VX7DO2+N8BR0+lgpmNbt29FIESPPru9sP9LAEe2wIBOaKAqxBBvcMoeJOTdEjTp
YrR9OM8Vp4p/9CM8KPR3pjMPQXX1w96i4qZ+JElrJ5TXRpqGFptpBbCxbVv21279
i88Ne8Xk7cHZoUXibjCoJSjYqEzSAujGcgMXKYZEkl7fUuev72Btet6scKAENpZW
9Rxts3jBN9HZoGB3yjgRA7gH8vzgvalBzMUGoZuMnJ8TCp1u5cCDbJhe0MhzEw3Y
8wHzqGrnGQTHVd4k5eleDPSPUbXi/NwKfRlAhHEezpyR2hxwuOW8Lf4fH14Llq9S
80NpgRn7zqkd9N/wln7H+NcVtGUECu+bSbHsBT82nKJCsFaKfdrmg028rRnEDioS
d2xoIRu6DhS+QyCE+n+uPTDrkKmJlFwGivQDAgMBAAGjgYowgYcwCQYDVR0TBAIw
ADA6BglghkgBhvhCAQ0ELRYrMTUtNDQxIENNVSBDQSBPcGVuU1NMIEdlbmVyYXRl
ZCBDZXJ0aWZpY2F0ZTAdBgNVHQ4EFgQUHHm224rPgFbEHAeiqaV3gLHKp8swHwYD
VR0jBBgwFoAUDaA4NRJD7cEcNzMsqMf3Rl39bVwwDQYJKoZIhvcNAQEFBQADggIB
AB23Eqm3Kd6mxRjv/Xtp0x8ajG6Q+TjqEccs6qaVdsDyYA7NpYkm8qiVWF8N8gVI
HbwQi2UvX2PFPveI8TohXp8+dsCPKNj21nkuPW9FYhbHOQDykoV1AQBVniSd7V0Z
ODQMCO1xBB+kgllk3crtlX6b6FoLILwCETEfje212hVFWTCPlNrf4L+I7+Uk1RWm
cwSjWbOgF7owN3F/vUZvgXcMRmbnq2V0KBDvB8TZ8x0rzRNXt0CFtGcTfX0Y6Wf7
HVRGuaDyPIphZeGYJPipp69u0e7w7k6uGfPTNK0DHmqhzqF51o/DIeW+NUOsOi5f
aN9QGamhZVyti2nqm13rIFqsf0ouYl6pKeHOW6d8IkKls3wuu6SMcpo6VVdGZXZb
Q5POBf14bhuZiadReTZlSd+QJmX3Ht5bSkaXpssGA8NUV/1apLnmFwKfp9WEsz37
xZbQI6/em03Q/4sY/wwXVB3gaQ6hg7kq5Gc37g498k9GL8fWxDNAu8YrDpOocIoZ
DPfIO0loKKtXBfQ8xn8038VIbNv3eLQyDWfa6KT0EZGYOTJP7yLuunWRGRF1hkzV
TXtxKAAUy8a7wOkZR0htwQWf/42SsUwBvF+rXpF/o2NHGvO3gg2A+iIqJ1todBIu
BS/iRxTgL5c9RAdg9eIE4CK6vNe6NaL1iLn3/NywIDzC
-----END CERTIFICATE-----
